target datalayout = "e-m:e-p270:32:32-p271:32:32-p272:64:64-i64:64-i128:128-f80:128-n8:16:32:64-S128"
target triple = "x86_64-unknown-linux-gnu"

%"struct.arrow::compute::ExecBatch" = type { %"class.std::vector", %"class.std::shared_ptr.0", %"class.arrow::compute::Expression", i64, i64 }
%"class.std::vector" = type { %"struct.std::_Vector_base" }
%"struct.std::_Vector_base" = type { %"struct.std::_Vector_base<arrow::Datum, std::allocator<arrow::Datum>>::_Vector_impl" }
%"struct.std::_Vector_base<arrow::Datum, std::allocator<arrow::Datum>>::_Vector_impl" = type { %"struct.std::_Vector_base<arrow::Datum, std::allocator<arrow::Datum>>::_Vector_impl_data" }
%"struct.std::_Vector_base<arrow::Datum, std::allocator<arrow::Datum>>::_Vector_impl_data" = type { ptr, ptr, ptr }
%"class.std::shared_ptr.0" = type { %"class.std::__shared_ptr.1" }
%"class.std::__shared_ptr.1" = type { ptr, %"class.std::__shared_count" }
%"class.std::__shared_count" = type { ptr }
%"class.arrow::compute::Expression" = type { %"class.std::shared_ptr.3" }
%"class.std::shared_ptr.3" = type { %"class.std::__shared_ptr.4" }
%"class.std::__shared_ptr.4" = type { ptr, %"class.std::__shared_count" }
%"struct.arrow::Datum" = type { %"class.std::variant" }
%"class.std::variant" = type { %"struct.std::__detail::__variant::_Variant_base.base", [7 x i8] }
%"struct.std::__detail::__variant::_Variant_base.base" = type { %"struct.std::__detail::__variant::_Move_assign_base.base" }
%"struct.std::__detail::__variant::_Move_assign_base.base" = type { %"struct.std::__detail::__variant::_Copy_assign_base.base" }
%"struct.std::__detail::__variant::_Copy_assign_base.base" = type { %"struct.std::__detail::__variant::_Move_ctor_base.base" }
%"struct.std::__detail::__variant::_Move_ctor_base.base" = type { %"struct.std::__detail::__variant::_Copy_ctor_base.base" }
%"struct.std::__detail::__variant::_Copy_ctor_base.base" = type { %"struct.std::__detail::__variant::_Variant_storage.base" }
%"struct.std::__detail::__variant::_Variant_storage.base" = type { %"union.std::__detail::__variant::_Variadic_union", i8 }
%"union.std::__detail::__variant::_Variadic_union" = type { %"union.std::__detail::__variant::_Variadic_union.19" }
%"union.std::__detail::__variant::_Variadic_union.19" = type { %"struct.std::__detail::__variant::_Uninitialized.20" }
%"struct.std::__detail::__variant::_Uninitialized.20" = type { %"struct.__gnu_cxx::__aligned_membuf" }
%"struct.__gnu_cxx::__aligned_membuf" = type { [16 x i8] }
%"class.__gnu_cxx::__normal_iterator.18" = type { ptr }

; Function Attrs: mustprogress uwtable
define linkonce_odr noundef zeroext i1 @_ZNK5arrow5DatumeqERKS0_(ptr noundef nonnull align 8 dereferenceable(24) %this, ptr noundef nonnull align 8 dereferenceable(24) %other) #0 comdat align 2 {
entry:
  %this.addr = alloca ptr, align 8
  %other.addr = alloca ptr, align 8
  store ptr %this, ptr %this.addr, align 8
  store ptr %other, ptr %other.addr, align 8
  %this1 = load ptr, ptr %this.addr, align 8
  %0 = load ptr, ptr %other.addr, align 8
  %call = call noundef zeroext i1 @_ZNK5arrow5Datum6EqualsERKS0_(ptr noundef nonnull align 8 dereferenceable(24) %this1, ptr noundef nonnull align 8 dereferenceable(24) %0)
  ret i1 %call
}

; Function Attrs: mustprogress uwtable
define linkonce_odr noundef zeroext i1 @_ZNSt7__equalILb0EE5equalIPKN5arrow5DatumES5_EEbT_S6_T0_(ptr noundef %__first1, ptr noundef %__last1, ptr noundef %__first2) #0 comdat align 2 {
entry:
  %retval = alloca i1, align 1
  %__first1.addr = alloca ptr, align 8
  %__last1.addr = alloca ptr, align 8
  %__first2.addr = alloca ptr, align 8
  store ptr %__first1, ptr %__first1.addr, align 8
  store ptr %__last1, ptr %__last1.addr, align 8
  store ptr %__first2, ptr %__first2.addr, align 8
  br label %for.cond

for.cond:                                         ; preds = %for.inc, %entry
  %0 = load ptr, ptr %__first1.addr, align 8
  %1 = load ptr, ptr %__last1.addr, align 8
  %cmp = icmp ne ptr %0, %1
  br i1 %cmp, label %for.body, label %for.end

for.body:                                         ; preds = %for.cond
  %2 = load ptr, ptr %__first1.addr, align 8
  %3 = load ptr, ptr %__first2.addr, align 8
  %call = call noundef zeroext i1 @_ZNK5arrow5DatumeqERKS0_(ptr noundef nonnull align 8 dereferenceable(24) %2, ptr noundef nonnull align 8 dereferenceable(24) %3)
  br i1 %call, label %if.end, label %if.then

if.then:                                          ; preds = %for.body
  store i1 false, ptr %retval, align 1
  br label %return

if.end:                                           ; preds = %for.body
  br label %for.inc

for.inc:                                          ; preds = %if.end
  %4 = load ptr, ptr %__first1.addr, align 8
  %incdec.ptr = getelementptr inbounds %"struct.arrow::Datum", ptr %4, i32 1
  store ptr %incdec.ptr, ptr %__first1.addr, align 8
  %5 = load ptr, ptr %__first2.addr, align 8
  %incdec.ptr1 = getelementptr inbounds %"struct.arrow::Datum", ptr %5, i32 1
  store ptr %incdec.ptr1, ptr %__first2.addr, align 8
  br label %for.cond, !llvm.loop !54

for.end:                                          ; preds = %for.cond
  store i1 true, ptr %retval, align 1
  br label %return

return:                                           ; preds = %for.end, %if.then
  %6 = load i1, ptr %retval, align 1
  ret i1 %6
}

; Function Attrs: mustprogress nounwind uwtable
define linkonce_odr noundef nonnull align 8 dereferenceable(8) ptr @_ZNK9__gnu_cxx17__normal_iteratorIPKN5arrow5DatumESt6vectorIS2_SaIS2_EEE4baseEv(ptr noundef nonnull align 8 dereferenceable(8) %this) #3 comdat align 2 {
entry:
  %this.addr = alloca ptr, align 8
  store ptr %this, ptr %this.addr, align 8
  %this1 = load ptr, ptr %this.addr, align 8
  %_M_current = getelementptr inbounds %"class.__gnu_cxx::__normal_iterator.18", ptr %this1, i32 0, i32 0
  ret ptr %_M_current
}

; Function Attrs: mustprogress uwtable
define linkonce_odr noundef zeroext i1 @_ZSt12__equal_aux1IPKN5arrow5DatumES3_EbT_S4_T0_(ptr noundef %__first1, ptr noundef %__last1, ptr noundef %__first2) #0 comdat {
entry:
  %__first1.addr = alloca ptr, align 8
  %__last1.addr = alloca ptr, align 8
  %__first2.addr = alloca ptr, align 8
  %__simple = alloca i8, align 1
  store ptr %__first1, ptr %__first1.addr, align 8
  store ptr %__last1, ptr %__last1.addr, align 8
  store ptr %__first2, ptr %__first2.addr, align 8
  store i8 0, ptr %__simple, align 1
  %0 = load ptr, ptr %__first1.addr, align 8
  %1 = load ptr, ptr %__last1.addr, align 8
  %2 = load ptr, ptr %__first2.addr, align 8
  %call = call noundef zeroext i1 @_ZNSt7__equalILb0EE5equalIPKN5arrow5DatumES5_EEbT_S6_T0_(ptr noundef %0, ptr noundef %1, ptr noundef %2)
  ret i1 %call
}

; Function Attrs: mustprogress nounwind uwtable
define linkonce_odr noundef ptr @_ZSt12__niter_baseIPKN5arrow5DatumESt6vectorIS1_SaIS1_EEET_N9__gnu_cxx17__normal_iteratorIS7_T0_EE(ptr %__it.coerce) #3 comdat {
entry:
  %__it = alloca %"class.__gnu_cxx::__normal_iterator.18", align 8
  %coerce.dive = getelementptr inbounds %"class.__gnu_cxx::__normal_iterator.18", ptr %__it, i32 0, i32 0
  store ptr %__it.coerce, ptr %coerce.dive, align 8
  %call = call noundef nonnull align 8 dereferenceable(8) ptr @_ZNK9__gnu_cxx17__normal_iteratorIPKN5arrow5DatumESt6vectorIS2_SaIS2_EEE4baseEv(ptr noundef nonnull align 8 dereferenceable(8) %__it) #1
  %0 = load ptr, ptr %call, align 8
  ret ptr %0
}

; Function Attrs: mustprogress uwtable
define linkonce_odr noundef zeroext i1 @_ZSt11__equal_auxIN9__gnu_cxx17__normal_iteratorIPKN5arrow5DatumESt6vectorIS3_SaIS3_EEEES9_EbT_SA_T0_(ptr %__first1.coerce, ptr %__last1.coerce, ptr %__first2.coerce) #0 comdat {
entry:
  %__first1 = alloca %"class.__gnu_cxx::__normal_iterator.18", align 8
  %__last1 = alloca %"class.__gnu_cxx::__normal_iterator.18", align 8
  %__first2 = alloca %"class.__gnu_cxx::__normal_iterator.18", align 8
  %agg.tmp = alloca %"class.__gnu_cxx::__normal_iterator.18", align 8
  %agg.tmp4 = alloca %"class.__gnu_cxx::__normal_iterator.18", align 8
  %agg.tmp7 = alloca %"class.__gnu_cxx::__normal_iterator.18", align 8
  %coerce.dive = getelementptr inbounds %"class.__gnu_cxx::__normal_iterator.18", ptr %__first1, i32 0, i32 0
  store ptr %__first1.coerce, ptr %coerce.dive, align 8
  %coerce.dive1 = getelementptr inbounds %"class.__gnu_cxx::__normal_iterator.18", ptr %__last1, i32 0, i32 0
  store ptr %__last1.coerce, ptr %coerce.dive1, align 8
  %coerce.dive2 = getelementptr inbounds %"class.__gnu_cxx::__normal_iterator.18", ptr %__first2, i32 0, i32 0
  store ptr %__first2.coerce, ptr %coerce.dive2, align 8
  call void @llvm.memcpy.p0.p0.i64(ptr align 8 %agg.tmp, ptr align 8 %__first1, i64 8, i1 false)
  %coerce.dive3 = getelementptr inbounds %"class.__gnu_cxx::__normal_iterator.18", ptr %agg.tmp, i32 0, i32 0
  %0 = load ptr, ptr %coerce.dive3, align 8
  %call = call noundef ptr @_ZSt12__niter_baseIPKN5arrow5DatumESt6vectorIS1_SaIS1_EEET_N9__gnu_cxx17__normal_iteratorIS7_T0_EE(ptr %0) #1
  call void @llvm.memcpy.p0.p0.i64(ptr align 8 %agg.tmp4, ptr align 8 %__last1, i64 8, i1 false)
  %coerce.dive5 = getelementptr inbounds %"class.__gnu_cxx::__normal_iterator.18", ptr %agg.tmp4, i32 0, i32 0
  %1 = load ptr, ptr %coerce.dive5, align 8
  %call6 = call noundef ptr @_ZSt12__niter_baseIPKN5arrow5DatumESt6vectorIS1_SaIS1_EEET_N9__gnu_cxx17__normal_iteratorIS7_T0_EE(ptr %1) #1
  call void @llvm.memcpy.p0.p0.i64(ptr align 8 %agg.tmp7, ptr align 8 %__first2, i64 8, i1 false)
  %coerce.dive8 = getelementptr inbounds %"class.__gnu_cxx::__normal_iterator.18", ptr %agg.tmp7, i32 0, i32 0
  %2 = load ptr, ptr %coerce.dive8, align 8
  %call9 = call noundef ptr @_ZSt12__niter_baseIPKN5arrow5DatumESt6vectorIS1_SaIS1_EEET_N9__gnu_cxx17__normal_iteratorIS7_T0_EE(ptr %2) #1
  %call10 = call noundef zeroext i1 @_ZSt12__equal_aux1IPKN5arrow5DatumES3_EbT_S4_T0_(ptr noundef %call, ptr noundef %call6, ptr noundef %call9)
  ret i1 %call10
}

; Function Attrs: mustprogress nounwind uwtable
define linkonce_odr void @_ZN9__gnu_cxx17__normal_iteratorIPKN5arrow5DatumESt6vectorIS2_SaIS2_EEEC2ERKS4_(ptr noundef nonnull align 8 dereferenceable(8) %this, ptr noundef nonnull align 8 dereferenceable(8) %__i) unnamed_addr #3 comdat align 2 {
entry:
  %this.addr = alloca ptr, align 8
  %__i.addr = alloca ptr, align 8
  store ptr %this, ptr %this.addr, align 8
  store ptr %__i, ptr %__i.addr, align 8
  %this1 = load ptr, ptr %this.addr, align 8
  %_M_current = getelementptr inbounds %"class.__gnu_cxx::__normal_iterator.18", ptr %this1, i32 0, i32 0
  %0 = load ptr, ptr %__i.addr, align 8
  %1 = load ptr, ptr %0, align 8
  store ptr %1, ptr %_M_current, align 8
  ret void
}

; Function Attrs: mustprogress uwtable
define linkonce_odr noundef zeroext i1 @_ZSt5equalIN9__gnu_cxx17__normal_iteratorIPKN5arrow5DatumESt6vectorIS3_SaIS3_EEEES9_EbT_SA_T0_(ptr %__first1.coerce, ptr %__last1.coerce, ptr %__first2.coerce) #0 comdat {
entry:
  %__first1 = alloca %"class.__gnu_cxx::__normal_iterator.18", align 8
  %__last1 = alloca %"class.__gnu_cxx::__normal_iterator.18", align 8
  %__first2 = alloca %"class.__gnu_cxx::__normal_iterator.18", align 8
  %agg.tmp = alloca %"class.__gnu_cxx::__normal_iterator.18", align 8
  %agg.tmp3 = alloca %"class.__gnu_cxx::__normal_iterator.18", align 8
  %agg.tmp4 = alloca %"class.__gnu_cxx::__normal_iterator.18", align 8
  %coerce.dive = getelementptr inbounds %"class.__gnu_cxx::__normal_iterator.18", ptr %__first1, i32 0, i32 0
  store ptr %__first1.coerce, ptr %coerce.dive, align 8
  %coerce.dive1 = getelementptr inbounds %"class.__gnu_cxx::__normal_iterator.18", ptr %__last1, i32 0, i32 0
  store ptr %__last1.coerce, ptr %coerce.dive1, align 8
  %coerce.dive2 = getelementptr inbounds %"class.__gnu_cxx::__normal_iterator.18", ptr %__first2, i32 0, i32 0
  store ptr %__first2.coerce, ptr %coerce.dive2, align 8
  call void @llvm.memcpy.p0.p0.i64(ptr align 8 %agg.tmp, ptr align 8 %__first1, i64 8, i1 false)
  call void @llvm.memcpy.p0.p0.i64(ptr align 8 %agg.tmp3, ptr align 8 %__last1, i64 8, i1 false)
  call void @llvm.memcpy.p0.p0.i64(ptr align 8 %agg.tmp4, ptr align 8 %__first2, i64 8, i1 false)
  %coerce.dive5 = getelementptr inbounds %"class.__gnu_cxx::__normal_iterator.18", ptr %agg.tmp, i32 0, i32 0
  %0 = load ptr, ptr %coerce.dive5, align 8
  %coerce.dive6 = getelementptr inbounds %"class.__gnu_cxx::__normal_iterator.18", ptr %agg.tmp3, i32 0, i32 0
  %1 = load ptr, ptr %coerce.dive6, align 8
  %coerce.dive7 = getelementptr inbounds %"class.__gnu_cxx::__normal_iterator.18", ptr %agg.tmp4, i32 0, i32 0
  %2 = load ptr, ptr %coerce.dive7, align 8
  %call = call noundef zeroext i1 @_ZSt11__equal_auxIN9__gnu_cxx17__normal_iteratorIPKN5arrow5DatumESt6vectorIS3_SaIS3_EEEES9_EbT_SA_T0_(ptr %0, ptr %1, ptr %2)
  ret i1 %call
}

; Function Attrs: mustprogress nounwind uwtable
define linkonce_odr ptr @_ZNKSt6vectorIN5arrow5DatumESaIS1_EE3endEv(ptr noundef nonnull align 8 dereferenceable(24) %this) #3 comdat align 2 {
entry:
  %retval = alloca %"class.__gnu_cxx::__normal_iterator.18", align 8
  %this.addr = alloca ptr, align 8
  store ptr %this, ptr %this.addr, align 8
  %this1 = load ptr, ptr %this.addr, align 8
  %_M_impl = getelementptr inbounds %"struct.std::_Vector_base", ptr %this1, i32 0, i32 0
  %_M_finish = getelementptr inbounds %"struct.std::_Vector_base<arrow::Datum, std::allocator<arrow::Datum>>::_Vector_impl_data", ptr %_M_impl, i32 0, i32 1
  call void @_ZN9__gnu_cxx17__normal_iteratorIPKN5arrow5DatumESt6vectorIS2_SaIS2_EEEC2ERKS4_(ptr noundef nonnull align 8 dereferenceable(8) %retval, ptr noundef nonnull align 8 dereferenceable(8) %_M_finish) #1
  %coerce.dive = getelementptr inbounds %"class.__gnu_cxx::__normal_iterator.18", ptr %retval, i32 0, i32 0
  %0 = load ptr, ptr %coerce.dive, align 8
  ret ptr %0
}

; Function Attrs: mustprogress nounwind uwtable
define linkonce_odr ptr @_ZNKSt6vectorIN5arrow5DatumESaIS1_EE5beginEv(ptr noundef nonnull align 8 dereferenceable(24) %this) #3 comdat align 2 {
entry:
  %retval = alloca %"class.__gnu_cxx::__normal_iterator.18", align 8
  %this.addr = alloca ptr, align 8
  store ptr %this, ptr %this.addr, align 8
  %this1 = load ptr, ptr %this.addr, align 8
  %_M_impl = getelementptr inbounds %"struct.std::_Vector_base", ptr %this1, i32 0, i32 0
  %_M_start = getelementptr inbounds %"struct.std::_Vector_base<arrow::Datum, std::allocator<arrow::Datum>>::_Vector_impl_data", ptr %_M_impl, i32 0, i32 0
  call void @_ZN9__gnu_cxx17__normal_iteratorIPKN5arrow5DatumESt6vectorIS2_SaIS2_EEEC2ERKS4_(ptr noundef nonnull align 8 dereferenceable(8) %retval, ptr noundef nonnull align 8 dereferenceable(8) %_M_start) #1
  %coerce.dive = getelementptr inbounds %"class.__gnu_cxx::__normal_iterator.18", ptr %retval, i32 0, i32 0
  %0 = load ptr, ptr %coerce.dive, align 8
  ret ptr %0
}

; Function Attrs: mustprogress nounwind uwtable
define linkonce_odr noundef i64 @_ZNKSt6vectorIN5arrow5DatumESaIS1_EE4sizeEv(ptr noundef nonnull align 8 dereferenceable(24) %this) #3 comdat align 2 {
entry:
  %this.addr = alloca ptr, align 8
  store ptr %this, ptr %this.addr, align 8
  %this1 = load ptr, ptr %this.addr, align 8
  %_M_impl = getelementptr inbounds %"struct.std::_Vector_base", ptr %this1, i32 0, i32 0
  %_M_finish = getelementptr inbounds %"struct.std::_Vector_base<arrow::Datum, std::allocator<arrow::Datum>>::_Vector_impl_data", ptr %_M_impl, i32 0, i32 1
  %0 = load ptr, ptr %_M_finish, align 8
  %_M_impl2 = getelementptr inbounds %"struct.std::_Vector_base", ptr %this1, i32 0, i32 0
  %_M_start = getelementptr inbounds %"struct.std::_Vector_base<arrow::Datum, std::allocator<arrow::Datum>>::_Vector_impl_data", ptr %_M_impl2, i32 0, i32 0
  %1 = load ptr, ptr %_M_start, align 8
  %sub.ptr.lhs.cast = ptrtoint ptr %0 to i64
  %sub.ptr.rhs.cast = ptrtoint ptr %1 to i64
  %sub.ptr.sub = sub i64 %sub.ptr.lhs.cast, %sub.ptr.rhs.cast
  %sub.ptr.div = sdiv exact i64 %sub.ptr.sub, 24
  ret i64 %sub.ptr.div
}

; Function Attrs: mustprogress uwtable
define linkonce_odr noundef zeroext i1 @_ZSteqIN5arrow5DatumESaIS1_EEbRKSt6vectorIT_T0_ES8_(ptr noundef nonnull align 8 dereferenceable(24) %__x, ptr noundef nonnull align 8 dereferenceable(24) %__y) #0 comdat {
entry:
  %__x.addr = alloca ptr, align 8
  %__y.addr = alloca ptr, align 8
  %agg.tmp = alloca %"class.__gnu_cxx::__normal_iterator.18", align 8
  %agg.tmp3 = alloca %"class.__gnu_cxx::__normal_iterator.18", align 8
  %agg.tmp6 = alloca %"class.__gnu_cxx::__normal_iterator.18", align 8
  store ptr %__x, ptr %__x.addr, align 8
  store ptr %__y, ptr %__y.addr, align 8
  %0 = load ptr, ptr %__x.addr, align 8
  %call = call noundef i64 @_ZNKSt6vectorIN5arrow5DatumESaIS1_EE4sizeEv(ptr noundef nonnull align 8 dereferenceable(24) %0) #1
  %1 = load ptr, ptr %__y.addr, align 8
  %call1 = call noundef i64 @_ZNKSt6vectorIN5arrow5DatumESaIS1_EE4sizeEv(ptr noundef nonnull align 8 dereferenceable(24) %1) #1
  %cmp = icmp eq i64 %call, %call1
  br i1 %cmp, label %land.rhs, label %land.end

land.rhs:                                         ; preds = %entry
  %2 = load ptr, ptr %__x.addr, align 8
  %call2 = call ptr @_ZNKSt6vectorIN5arrow5DatumESaIS1_EE5beginEv(ptr noundef nonnull align 8 dereferenceable(24) %2) #1
  %coerce.dive = getelementptr inbounds %"class.__gnu_cxx::__normal_iterator.18", ptr %agg.tmp, i32 0, i32 0
  store ptr %call2, ptr %coerce.dive, align 8
  %3 = load ptr, ptr %__x.addr, align 8
  %call4 = call ptr @_ZNKSt6vectorIN5arrow5DatumESaIS1_EE3endEv(ptr noundef nonnull align 8 dereferenceable(24) %3) #1
  %coerce.dive5 = getelementptr inbounds %"class.__gnu_cxx::__normal_iterator.18", ptr %agg.tmp3, i32 0, i32 0
  store ptr %call4, ptr %coerce.dive5, align 8
  %4 = load ptr, ptr %__y.addr, align 8
  %call7 = call ptr @_ZNKSt6vectorIN5arrow5DatumESaIS1_EE5beginEv(ptr noundef nonnull align 8 dereferenceable(24) %4) #1
  %coerce.dive8 = getelementptr inbounds %"class.__gnu_cxx::__normal_iterator.18", ptr %agg.tmp6, i32 0, i32 0
  store ptr %call7, ptr %coerce.dive8, align 8
  %coerce.dive9 = getelementptr inbounds %"class.__gnu_cxx::__normal_iterator.18", ptr %agg.tmp, i32 0, i32 0
  %5 = load ptr, ptr %coerce.dive9, align 8
  %coerce.dive10 = getelementptr inbounds %"class.__gnu_cxx::__normal_iterator.18", ptr %agg.tmp3, i32 0, i32 0
  %6 = load ptr, ptr %coerce.dive10, align 8
  %coerce.dive11 = getelementptr inbounds %"class.__gnu_cxx::__normal_iterator.18", ptr %agg.tmp6, i32 0, i32 0
  %7 = load ptr, ptr %coerce.dive11, align 8
  %call12 = call noundef zeroext i1 @_ZSt5equalIN9__gnu_cxx17__normal_iteratorIPKN5arrow5DatumESt6vectorIS3_SaIS3_EEEES9_EbT_SA_T0_(ptr %5, ptr %6, ptr %7)
  br label %land.end

land.end:                                         ; preds = %land.rhs, %entry
  %8 = phi i1 [ false, %entry ], [ %call12, %land.rhs ]
  ret i1 %8
}

; Function Attrs: mustprogress uwtable
define linkonce_odr noundef zeroext i1 @_ZN5arrow7computeeqERKNS0_10ExpressionES3_(ptr noundef nonnull align 8 dereferenceable(16) %l, ptr noundef nonnull align 8 dereferenceable(16) %r) #0 comdat {
entry:
  %l.addr = alloca ptr, align 8
  %r.addr = alloca ptr, align 8
  store ptr %l, ptr %l.addr, align 8
  store ptr %r, ptr %r.addr, align 8
  %0 = load ptr, ptr %l.addr, align 8
  %1 = load ptr, ptr %r.addr, align 8
  %call = call noundef zeroext i1 @_ZNK5arrow7compute10Expression6EqualsERKS1_(ptr noundef nonnull align 8 dereferenceable(16) %0, ptr noundef nonnull align 8 dereferenceable(16) %1)
  ret i1 %call
}

; Function Attrs: mustprogress uwtable
define noundef zeroext i1 @_ZNK5arrow7compute9ExecBatch6EqualsERKS1_(ptr noundef nonnull align 8 dereferenceable(72) %this, ptr noundef nonnull align 8 dereferenceable(72) %other) #0 align 2 {
entry:
  %this.addr = alloca ptr, align 8
  %other.addr = alloca ptr, align 8
  store ptr %this, ptr %this.addr, align 8
  store ptr %other, ptr %other.addr, align 8
  %this1 = load ptr, ptr %this.addr, align 8
  %guarantee = getelementptr inbounds %"struct.arrow::compute::ExecBatch", ptr %this1, i32 0, i32 2
  %0 = load ptr, ptr %other.addr, align 8
  %guarantee2 = getelementptr inbounds %"struct.arrow::compute::ExecBatch", ptr %0, i32 0, i32 2
  %call = call noundef zeroext i1 @_ZN5arrow7computeeqERKNS0_10ExpressionES3_(ptr noundef nonnull align 8 dereferenceable(16) %guarantee, ptr noundef nonnull align 8 dereferenceable(16) %guarantee2)
  br i1 %call, label %land.rhs, label %land.end

land.rhs:                                         ; preds = %entry
  %values = getelementptr inbounds %"struct.arrow::compute::ExecBatch", ptr %this1, i32 0, i32 0
  %1 = load ptr, ptr %other.addr, align 8
  %values3 = getelementptr inbounds %"struct.arrow::compute::ExecBatch", ptr %1, i32 0, i32 0
  %call4 = call noundef zeroext i1 @_ZSteqIN5arrow5DatumESaIS1_EEbRKSt6vectorIT_T0_ES8_(ptr noundef nonnull align 8 dereferenceable(24) %values, ptr noundef nonnull align 8 dereferenceable(24) %values3)
  br label %land.end

land.end:                                         ; preds = %land.rhs, %entry
  %2 = phi i1 [ false, %entry ], [ %call4, %land.rhs ]
  ret i1 %2
}