; Function Attrs: mustprogress uwtable
define noundef zeroext i1 @_ZNK5arrow7compute9ExecBatch6EqualsERKS1_(ptr noundef nonnull align 8 dereferenceable(72) %this, ptr noundef nonnull align 8 dereferenceable(72) %other) local_unnamed_addr #0 align 2 {
entry:
  %guarantee = getelementptr inbounds i8, ptr %this, i64 40
  %guarantee2 = getelementptr inbounds i8, ptr %other, i64 40
  %call.i = tail call noundef zeroext i1 @_ZNK5arrow7compute10Expression6EqualsERKS1_(ptr noundef nonnull align 8 dereferenceable(16) %guarantee, ptr noundef nonnull align 8 dereferenceable(16) %guarantee2)
  br i1 %call.i, label %land.rhs, label %land.end

land.rhs:                                         ; preds = %entry
  %_M_finish.i.i = getelementptr inbounds i8, ptr %this, i64 8
  %0 = load ptr, ptr %_M_finish.i.i, align 8
  %1 = load ptr, ptr %this, align 8
  %sub.ptr.lhs.cast.i.i = ptrtoint ptr %0 to i64
  %sub.ptr.rhs.cast.i.i = ptrtoint ptr %1 to i64
  %sub.ptr.sub.i.i = sub i64 %sub.ptr.lhs.cast.i.i, %sub.ptr.rhs.cast.i.i
  %_M_finish.i4.i = getelementptr inbounds i8, ptr %other, i64 8
  %2 = load ptr, ptr %_M_finish.i4.i, align 8
  %3 = load ptr, ptr %other, align 8
  %sub.ptr.lhs.cast.i5.i = ptrtoint ptr %2 to i64
  %sub.ptr.rhs.cast.i6.i = ptrtoint ptr %3 to i64
  %sub.ptr.sub.i7.i = sub i64 %sub.ptr.lhs.cast.i5.i, %sub.ptr.rhs.cast.i6.i
  %cmp.i = icmp eq i64 %sub.ptr.sub.i.i, %sub.ptr.sub.i7.i
  br i1 %cmp.i, label %land.rhs.i, label %land.end

land.rhs.i:                                       ; preds = %land.rhs
  %cmp.not4.i.i.i.i.i = icmp eq ptr %1, %0
  br i1 %cmp.not4.i.i.i.i.i, label %land.end, label %for.body.i.i.i.i.i

for.body.i.i.i.i.i:                               ; preds = %land.rhs.i, %for.body.i.i.i.i.i
  %__first2.addr.06.i.i.i.i.i = phi ptr [ %incdec.ptr1.i.i.i.i.i, %for.body.i.i.i.i.i ], [ %3, %land.rhs.i ]
  %__first1.addr.05.i.i.i.i.i = phi ptr [ %incdec.ptr.i.i.i.i.i, %for.body.i.i.i.i.i ], [ %1, %land.rhs.i ]
  %call.i.i.i.i.i.i = tail call noundef zeroext i1 @_ZNK5arrow5Datum6EqualsERKS0_(ptr noundef nonnull align 8 dereferenceable(24) %__first1.addr.05.i.i.i.i.i, ptr noundef nonnull align 8 dereferenceable(24) %__first2.addr.06.i.i.i.i.i)
  %incdec.ptr.i.i.i.i.i = getelementptr inbounds i8, ptr %__first1.addr.05.i.i.i.i.i, i64 24
  %incdec.ptr1.i.i.i.i.i = getelementptr inbounds i8, ptr %__first2.addr.06.i.i.i.i.i, i64 24
  %cmp.not.i.i.i.i.i = icmp ne ptr %incdec.ptr.i.i.i.i.i, %0
  %or.cond.not = select i1 %call.i.i.i.i.i.i, i1 %cmp.not.i.i.i.i.i, i1 false
  br i1 %or.cond.not, label %for.body.i.i.i.i.i, label %land.end, !llvm.loop !13

land.end:                                         ; preds = %for.body.i.i.i.i.i, %land.rhs.i, %land.rhs, %entry
  %4 = phi i1 [ false, %entry ], [ false, %land.rhs ], [ true, %land.rhs.i ], [ %call.i.i.i.i.i.i, %for.body.i.i.i.i.i ]
  ret i1 %4
}